; Function Attrs: nounwind uwtable
define internal i32 @on_pre_input_hook() #0 {
  %1 = tail call i32 @PyGILState_Ensure() #14
  %2 = tail call ptr @PyState_FindModule(ptr noundef nonnull @readlinemodule) #14
  %3 = icmp eq ptr %2, null
  br i1 %3, label %get_hook_module_state.exit.thread, label %4

get_hook_module_state.exit.thread:                ; preds = %0
  tail call void @PyErr_Clear() #14
  br label %20

4:                                                ; preds = %0
  %5 = load i32, ptr %2, align 8, !tbaa !25
  %6 = icmp slt i32 %5, 0
  br i1 %6, label %Py_INCREF.exit.i, label %7

7:                                                ; preds = %4
  %8 = add nuw i32 %5, 1
  store i32 %8, ptr %2, align 8, !tbaa !25
  br label %Py_INCREF.exit.i

Py_INCREF.exit.i:                                 ; preds = %7, %4
  %9 = tail call ptr @PyModule_GetState(ptr noundef nonnull %2) #14
  %10 = load i32, ptr %2, align 8, !tbaa !25
  %.not.i.i = icmp sgt i32 %10, -1
  br i1 %.not.i.i, label %11, label %get_hook_module_state.exit

11:                                               ; preds = %Py_INCREF.exit.i
  %12 = add nsw i32 %10, -1
  store i32 %12, ptr %2, align 8, !tbaa !25
  %13 = icmp eq i32 %12, 0
  br i1 %13, label %14, label %get_hook_module_state.exit

14:                                               ; preds = %11
  tail call void @_Py_Dealloc(ptr noundef nonnull %2) #14
  br label %get_hook_module_state.exit

get_hook_module_state.exit:                       ; preds = %Py_INCREF.exit.i, %11, %14
  %15 = icmp eq ptr %9, null
  br i1 %15, label %20, label %16

16:                                               ; preds = %get_hook_module_state.exit
  %17 = getelementptr inbounds nuw i8, ptr %9, i64 16
  %18 = load ptr, ptr %17, align 8, !tbaa !39
  %19 = tail call fastcc i32 @on_hook(ptr noundef %18)
  br label %20

20:                                               ; preds = %get_hook_module_state.exit, %get_hook_module_state.exit.thread, %16
  %.0 = phi i32 [ %19, %16 ], [ -1, %get_hook_module_state.exit.thread ], [ -1, %get_hook_module_state.exit ]
  tail call void @PyGILState_Release(i32 noundef %1) #14
  ret i32 %.0
}